; Function Attrs: mustprogress nounwind uwtable
define internal void @"_ZN4llvm12function_refIFvRNS_3vfs10FileSystemEEE11callback_fnIZN5clang11FileManager13trackVFSUsageEbE3$_0EEvlS3_"(i64 noundef %0, ptr noundef nonnull align 8 dereferenceable(12) %1) #0 align 2 {
  %3 = load ptr, ptr %1, align 8
  %4 = getelementptr inbounds i8, ptr %3, i64 24
  %5 = load ptr, ptr %4, align 8
  %6 = tail call noundef zeroext i1 %5(ptr noundef nonnull align 8 dereferenceable(8) %1, ptr noundef nonnull @_ZN4llvm3vfs21RedirectingFileSystem2IDE) #17
  br i1 %6, label %7, label %"_ZZN5clang11FileManager13trackVFSUsageEbENK3$_0clERN4llvm3vfs10FileSystemE.exit"

7:                                                ; preds = %2
  %8 = inttoptr i64 %0 to ptr
  %9 = load i8, ptr %8, align 1
  %10 = and i8 %9, 1
  %11 = getelementptr inbounds nuw i8, ptr %1, i64 116
  store i8 %10, ptr %11, align 4
  br label %"_ZZN5clang11FileManager13trackVFSUsageEbENK3$_0clERN4llvm3vfs10FileSystemE.exit"

"_ZZN5clang11FileManager13trackVFSUsageEbENK3$_0clERN4llvm3vfs10FileSystemE.exit": ; preds = %2, %7
  ret void
}